target datalayout = "e-m:e-p270:32:32-p271:32:32-p272:64:64-i64:64-i128:128-f80:128-n8:16:32:64-S128"
target triple = "x86_64-unknown-linux-gnu"

%"struct.node::AssertionInfo" = type { ptr, ptr, ptr }

@_ZZN4node19sockaddr_for_familyEiPKctP16sockaddr_storageE4args = internal constant %"struct.node::AssertionInfo" { ptr @.str.43, ptr @.str.44, ptr @.str.45 }, align 8

; Function Attrs: mustprogress nounwind uwtable
define dso_local noundef i32 @_ZN4node19sockaddr_for_familyEiPKctP16sockaddr_storage(i32 noundef %address_family, ptr noundef %address, i16 noundef zeroext %port, ptr noundef %addr) #4 {
entry:
  %retval = alloca i32, align 4
  %address_family.addr = alloca i32, align 4
  %address.addr = alloca ptr, align 8
  %port.addr = alloca i16, align 2
  %addr.addr = alloca ptr, align 8
  store i32 %address_family, ptr %address_family.addr, align 4
  store ptr %address, ptr %address.addr, align 8
  store i16 %port, ptr %port.addr, align 2
  store ptr %addr, ptr %addr.addr, align 8
  %0 = load i32, ptr %address_family.addr, align 4
  switch i32 %0, label %sw.default [
    i32 2, label %sw.bb
    i32 10, label %sw.bb1
  ]

sw.bb:                                            ; preds = %entry
  %1 = load ptr, ptr %address.addr, align 8
  %2 = load i16, ptr %port.addr, align 2
  %conv = zext i16 %2 to i32
  %3 = load ptr, ptr %addr.addr, align 8
  %call = call i32 @uv_ip4_addr(ptr noundef %1, i32 noundef %conv, ptr noundef %3)
  store i32 %call, ptr %retval, align 4
  br label %return

sw.bb1:                                           ; preds = %entry
  %4 = load ptr, ptr %address.addr, align 8
  %5 = load i16, ptr %port.addr, align 2
  %conv2 = zext i16 %5 to i32
  %6 = load ptr, ptr %addr.addr, align 8
  %call3 = call i32 @uv_ip6_addr(ptr noundef %4, i32 noundef %conv2, ptr noundef %6)
  store i32 %call3, ptr %retval, align 4
  br label %return

sw.default:                                       ; preds = %entry
  br label %do.body

do.body:                                          ; preds = %sw.default
  call void @_ZN4node6AssertERKNS_13AssertionInfoE(ptr noundef nonnull align 8 dereferenceable(24) @_ZZN4node19sockaddr_for_familyEiPKctP16sockaddr_storageE4args)
  call void @abort() #13
  unreachable

do.end:                                           ; No predecessors!
  br label %sw.epilog

sw.epilog:                                        ; preds = %do.end
  call void @llvm.trap()
  unreachable

return:                                           ; preds = %sw.bb1, %sw.bb
  %7 = load i32, ptr %retval, align 4
  ret i32 %7
}