; Function Attrs: mustprogress nounwind uwtable
define dso_local noundef i32 @_ZN4node19sockaddr_for_familyEiPKctP16sockaddr_storage(i32 noundef %address_family, ptr noundef %address, i16 noundef zeroext %port, ptr noundef %addr) local_unnamed_addr #3 {
entry:
  switch i32 %address_family, label %do.body [
    i32 2, label %sw.bb
    i32 10, label %sw.bb1
  ]

sw.bb:                                            ; preds = %entry
  %conv = zext i16 %port to i32
  %call = tail call i32 @uv_ip4_addr(ptr noundef %address, i32 noundef %conv, ptr noundef %addr) #19
  br label %return

sw.bb1:                                           ; preds = %entry
  %conv2 = zext i16 %port to i32
  %call3 = tail call i32 @uv_ip6_addr(ptr noundef %address, i32 noundef %conv2, ptr noundef %addr) #19
  br label %return

do.body:                                          ; preds = %entry
  tail call void @_ZN4node6AssertERKNS_13AssertionInfoE(ptr noundef nonnull align 8 dereferenceable(24) @_ZZN4node19sockaddr_for_familyEiPKctP16sockaddr_storageE4args) #19
  tail call void @abort() #20
  unreachable

return:                                           ; preds = %sw.bb1, %sw.bb
  %retval.0 = phi i32 [ %call3, %sw.bb1 ], [ %call, %sw.bb ]
  ret i32 %retval.0
}